; ModuleID = 'source-C-CXX/6/220.c'
source_filename = "source-C-CXX/6/220.c"
target datalayout = "e-m:e-p270:32:32-p271:32:32-p272:64:64-i64:64-f80:128-n8:16:32:64-S128"
target triple = "x86_64-pc-linux-gnu"

@.str = private unnamed_addr constant [10 x i8] c"%s\0A%s\0A%s\0A\00", align 1
@.str.1 = private unnamed_addr constant [3 x i8] c"%s\00", align 1

; Function Attrs: nofree nounwind sspstrong uwtable
define dso_local i32 @main() local_unnamed_addr #0 {
  %1 = alloca [257 x i8], align 16
  %2 = alloca [257 x i8], align 16
  %3 = alloca [257 x i8], align 16
  %4 = getelementptr inbounds [257 x i8], [257 x i8]* %3, i64 0, i64 0
  %5 = getelementptr inbounds [257 x i8], [257 x i8]* %1, i64 0, i64 0
  call void @llvm.lifetime.start.p0i8(i64 257, i8* nonnull %5) #7
  %6 = getelementptr inbounds [257 x i8], [257 x i8]* %2, i64 0, i64 0
  call void @llvm.lifetime.start.p0i8(i64 257, i8* nonnull %6) #7
  %7 = getelementptr inbounds [257 x i8], [257 x i8]* %3, i64 0, i64 0
  call void @llvm.lifetime.start.p0i8(i64 257, i8* nonnull %7) #7
  %8 = call i32 (i8*, ...) @__isoc99_scanf(i8* getelementptr inbounds ([10 x i8], [10 x i8]* @.str, i64 0, i64 0), i8* nonnull %5, i8* nonnull %6, i8* nonnull %7)
  %9 = call i64 @strlen(i8* noundef nonnull %6) #8
  %10 = trunc i64 %9 to i32
  %11 = load i8, i8* %6, align 16
  %12 = shl i64 %9, 32
  %13 = ashr exact i64 %12, 32
  %14 = load i8, i8* %5, align 16, !tbaa !5
  %15 = icmp eq i8 %14, 0
  br i1 %15, label %42, label %16

16:                                               ; preds = %0, %37
  %17 = phi i64 [ %38, %37 ], [ 0, %0 ]
  %18 = phi i8 [ %40, %37 ], [ %14, %0 ]
  %19 = phi i8* [ %39, %37 ], [ %5, %0 ]
  %20 = icmp eq i8 %18, %11
  br i1 %20, label %21, label %37

21:                                               ; preds = %16
  %22 = call i32 @bcmp(i8* nonnull %6, i8* nonnull %19, i64 %13)
  %23 = icmp eq i32 %22, 0
  br i1 %23, label %24, label %37

24:                                               ; preds = %21
  %25 = trunc i64 %17 to i32
  %26 = icmp sgt i32 %10, 0
  br i1 %26, label %27, label %42

27:                                               ; preds = %24
  %28 = and i64 %17, 4294967295
  %29 = getelementptr [257 x i8], [257 x i8]* %1, i64 0, i64 %28
  %30 = add i32 %10, %25
  %31 = add i32 %25, 1
  %32 = call i32 @llvm.smax.i32(i32 %30, i32 %31)
  %33 = xor i32 %25, -1
  %34 = add i32 %32, %33
  %35 = zext i32 %34 to i64
  %36 = add nuw nsw i64 %35, 1
  call void @llvm.memcpy.p0i8.p0i8.i64(i8* noundef nonnull align 1 dereferenceable(1) %29, i8* noundef nonnull align 16 %4, i64 %36, i1 false)
  br label %42

37:                                               ; preds = %16, %21
  %38 = add nuw i64 %17, 1
  %39 = getelementptr inbounds [257 x i8], [257 x i8]* %1, i64 0, i64 %38
  %40 = load i8, i8* %39, align 1, !tbaa !5
  %41 = icmp eq i8 %40, 0
  br i1 %41, label %42, label %16, !llvm.loop !8

42:                                               ; preds = %37, %27, %0, %24
  %43 = call i32 (i8*, ...) @printf(i8* nonnull dereferenceable(1) getelementptr inbounds ([3 x i8], [3 x i8]* @.str.1, i64 0, i64 0), i8* nonnull %5)
  call void @llvm.lifetime.end.p0i8(i64 257, i8* nonnull %7) #7
  call void @llvm.lifetime.end.p0i8(i64 257, i8* nonnull %6) #7
  call void @llvm.lifetime.end.p0i8(i64 257, i8* nonnull %5) #7
  ret i32 0
}

; Function Attrs: argmemonly mustprogress nofree nosync nounwind willreturn
declare void @llvm.lifetime.start.p0i8(i64 immarg, i8* nocapture) #1

; Function Attrs: nofree nounwind
declare noundef i32 @__isoc99_scanf(i8* nocapture noundef readonly, ...) local_unnamed_addr #2

; Function Attrs: argmemonly mustprogress nofree nounwind readonly willreturn
declare i64 @strlen(i8* nocapture) local_unnamed_addr #3

; Function Attrs: nofree nounwind
declare noundef i32 @printf(i8* nocapture noundef readonly, ...) local_unnamed_addr #2

; Function Attrs: argmemonly mustprogress nofree nosync nounwind willreturn
declare void @llvm.lifetime.end.p0i8(i64 immarg, i8* nocapture) #1

; Function Attrs: argmemonly nofree nounwind readonly willreturn
declare i32 @bcmp(i8* nocapture, i8* nocapture, i64) local_unnamed_addr #4

; Function Attrs: nofree nosync nounwind readnone speculatable willreturn
declare i32 @llvm.smax.i32(i32, i32) #5

; Function Attrs: argmemonly nofree nounwind willreturn
declare void @llvm.memcpy.p0i8.p0i8.i64(i8* noalias nocapture writeonly, i8* noalias nocapture readonly, i64, i1 immarg) #6


!llvm.module.flags = !{!0, !1, !2, !3}
!llvm.ident = !{!4}

!0 = !{i32 1, !"wchar_size", i32 4}
!1 = !{i32 7, !"PIC Level", i32 2}
!2 = !{i32 7, !"PIE Level", i32 2}
!3 = !{i32 7, !"uwtable", i32 1}
!4 = !{!"clang version 13.0.0"}
!5 = !{!6, !6, i64 0}
!6 = !{!"omnipotent char", !7, i64 0}
!7 = !{!"Simple C/C++ TBAA"}
!8 = distinct !{!8, !9}
!9 = !{!"llvm.loop.mustprogress"}
